; Function Attrs: mustprogress uwtable
define noundef zeroext i1 @pkpy_push_module(ptr noundef %0, ptr noundef %1) local_unnamed_addr #4 personality ptr @__gxx_personality_v0 {
  %3 = alloca %"struct.pkpy::Str", align 8
  %4 = alloca %"struct.pkpy::Str", align 8
  %5 = alloca ptr, align 8
  %6 = alloca ptr, align 8
  %7 = getelementptr inbounds nuw i8, ptr %0, i64 264488
  %8 = load ptr, ptr %7, align 8
  %.not = icmp eq ptr %8, null
  br i1 %.not, label %9, label %52

9:                                                ; preds = %2
  invoke void @_ZN4pkpy3StrC1EPKc(ptr noundef nonnull align 8 dereferenceable(32) %3, ptr noundef %1)
          to label %10 unwind label %17

10:                                               ; preds = %9
  invoke void @_ZN4pkpy3StrC1EPKc(ptr noundef nonnull align 8 dereferenceable(32) %4, ptr noundef nonnull @.str.5)
          to label %11 unwind label %19

11:                                               ; preds = %10
  %12 = invoke noundef ptr @_ZN4pkpy2VM10new_moduleENS_3StrES1_(ptr noundef nonnull align 8 dereferenceable(264913) %0, ptr noundef nonnull %3, ptr noundef nonnull %4)
          to label %13 unwind label %21

13:                                               ; preds = %11
  call void @_ZN4pkpy3StrD1Ev(ptr noundef nonnull align 8 dereferenceable(32) %4) #32
  call void @_ZN4pkpy3StrD1Ev(ptr noundef nonnull align 8 dereferenceable(32) %3) #32
  %14 = getelementptr inbounds nuw i8, ptr %0, i64 264296
  %15 = load ptr, ptr %14, align 8
  %16 = getelementptr inbounds nuw i8, ptr %15, i64 8
  store ptr %16, ptr %14, align 8
  store ptr %12, ptr %15, align 8
  br label %52

17:                                               ; preds = %9
  %18 = landingpad { ptr, i32 }
          catch ptr @_ZTIN4pkpy9ExceptionE
          catch ptr @_ZTISt9exception
  br label %24

19:                                               ; preds = %10
  %20 = landingpad { ptr, i32 }
          cleanup
          catch ptr @_ZTIN4pkpy9ExceptionE
          catch ptr @_ZTISt9exception
  br label %23

21:                                               ; preds = %11
  %22 = landingpad { ptr, i32 }
          cleanup
          catch ptr @_ZTIN4pkpy9ExceptionE
          catch ptr @_ZTISt9exception
  call void @_ZN4pkpy3StrD1Ev(ptr noundef nonnull align 8 dereferenceable(32) %4) #32
  br label %23

23:                                               ; preds = %21, %19
  %.pn = phi { ptr, i32 } [ %22, %21 ], [ %20, %19 ]
  call void @_ZN4pkpy3StrD1Ev(ptr noundef nonnull align 8 dereferenceable(32) %3) #32
  br label %24

24:                                               ; preds = %23, %17
  %.pn.pn = phi { ptr, i32 } [ %.pn, %23 ], [ %18, %17 ]
  %.019 = extractvalue { ptr, i32 } %.pn.pn, 0
  %.020 = extractvalue { ptr, i32 } %.pn.pn, 1
  %25 = call i32 @llvm.eh.typeid.for.p0(ptr nonnull @_ZTIN4pkpy9ExceptionE) #32
  %26 = icmp eq i32 %.020, %25
  br i1 %26, label %27, label %31

27:                                               ; preds = %24
  %28 = call ptr @__cxa_begin_catch(ptr %.019) #32
  %29 = invoke noundef ptr @_ZNK4pkpy9Exception4selfEv(ptr noundef nonnull align 8 dereferenceable(88) %28)
          to label %30 unwind label %50

30:                                               ; preds = %27
  store ptr %29, ptr %7, align 8
  call void @__cxa_end_catch()
  br label %52

31:                                               ; preds = %24
  %32 = call i32 @llvm.eh.typeid.for.p0(ptr nonnull @_ZTISt9exception) #32
  %33 = icmp eq i32 %.020, %32
  br i1 %33, label %34, label %53

34:                                               ; preds = %31
  %35 = call ptr @__cxa_begin_catch(ptr %.019) #32
  %36 = getelementptr inbounds nuw i8, ptr %0, i64 264328
  %37 = load ptr, ptr %36, align 8
  %38 = getelementptr inbounds nuw i8, ptr %37, i64 4920
  %39 = load ptr, ptr %38, align 8
  %40 = load ptr, ptr %35, align 8
  %41 = getelementptr inbounds nuw i8, ptr %40, i64 16
  %42 = load ptr, ptr %41, align 8
  %43 = call noundef ptr %42(ptr noundef nonnull align 8 dereferenceable(8) %35) #32
  store ptr %43, ptr %6, align 8
  %44 = invoke noundef ptr @_ZN4pkpy6py_varIPKcEEPNS_8PyObjectEPNS_2VMEOT_(ptr noundef nonnull %0, ptr noundef nonnull align 8 dereferenceable(8) %6)
          to label %45 unwind label %48

45:                                               ; preds = %34
  store ptr %44, ptr %5, align 8
  %46 = invoke noundef ptr @_ZN4pkpy2VM4callIJPNS_8PyObjectEEEES3_S3_DpOT_(ptr noundef nonnull align 8 dereferenceable(264913) %0, ptr noundef %39, ptr noundef nonnull align 8 dereferenceable(8) %5)
          to label %47 unwind label %48

47:                                               ; preds = %45
  store ptr %46, ptr %7, align 8
  call void @__cxa_end_catch()
  br label %52

48:                                               ; preds = %45, %34
  %49 = landingpad { ptr, i32 }
          cleanup
  invoke void @__cxa_end_catch()
          to label %53 unwind label %54

50:                                               ; preds = %27
  %51 = landingpad { ptr, i32 }
          cleanup
  invoke void @__cxa_end_catch()
          to label %53 unwind label %54

52:                                               ; preds = %2, %13, %47, %30
  %.0 = phi i1 [ true, %13 ], [ false, %30 ], [ false, %47 ], [ false, %2 ]
  ret i1 %.0

53:                                               ; preds = %50, %48, %31
  %.merged = phi { ptr, i32 } [ %51, %50 ], [ %49, %48 ], [ %.pn.pn, %31 ]
  resume { ptr, i32 } %.merged

54:                                               ; preds = %50, %48
  %55 = landingpad { ptr, i32 }
          catch ptr null
  %56 = extractvalue { ptr, i32 } %55, 0
  call void @__clang_call_terminate(ptr %56) #29
  unreachable
}